; Function Attrs: nounwind uwtable
define internal fastcc ptr @VULKAN_CreateSemaphore(ptr %.1632.val) unnamed_addr #0 {
  %1 = alloca ptr, align 8
  %2 = alloca %struct.VkSemaphoreCreateInfo, align 8
  call void @llvm.lifetime.start.p0(i64 8, ptr nonnull %1) #8
  store ptr null, ptr %1, align 8
  call void @llvm.lifetime.start.p0(i64 24, ptr nonnull %2) #8
  call void @llvm.memset.p0.i64(ptr noundef nonnull align 8 dereferenceable(24) %2, i8 0, i64 24, i1 false)
  store i32 9, ptr %2, align 8
  %3 = load ptr, ptr @vkCreateSemaphore, align 8
  %4 = call i32 %3(ptr noundef %.1632.val, ptr noundef nonnull %2, ptr noundef null, ptr noundef nonnull %1) #8
  %.not = icmp eq i32 %4, 0
  br i1 %.not, label %12, label %5

5:                                                ; preds = %0
  %6 = call zeroext i1 @SDL_GetHintBoolean_REAL(ptr noundef nonnull @.str.7, i1 noundef zeroext false) #8
  br i1 %6, label %7, label %9

7:                                                ; preds = %5
  %8 = call ptr @SDL_Vulkan_GetResultString(i32 noundef %4) #8
  call void (i32, ptr, ...) @SDL_LogError_REAL(i32 noundef 6, ptr noundef nonnull @.str.8, ptr noundef nonnull @.str.272, ptr noundef %8) #8
  call void @llvm.debugtrap()
  br label %9

9:                                                ; preds = %7, %5
  %10 = call ptr @SDL_Vulkan_GetResultString(i32 noundef %4) #8
  %11 = call zeroext i1 (ptr, ...) @SDL_SetError_REAL(ptr noundef nonnull @.str.8, ptr noundef nonnull @.str.272, ptr noundef %10) #8
  br label %14

12:                                               ; preds = %0
  %13 = load ptr, ptr %1, align 8
  br label %14

14:                                               ; preds = %12, %9
  %.0 = phi ptr [ null, %9 ], [ %13, %12 ]
  call void @llvm.lifetime.end.p0(i64 24, ptr nonnull %2) #8
  call void @llvm.lifetime.end.p0(i64 8, ptr nonnull %1) #8
  ret ptr %.0
}